; Function Attrs: mustprogress uwtable
define void @_ZN13b2PulleyJointC2EPK16b2PulleyJointDef(ptr noundef nonnull align 8 dereferenceable(256) %this, ptr noundef %def) unnamed_addr #1 align 2 {
entry:
  tail call void @_ZN7b2JointC2EPK10b2JointDef(ptr noundef nonnull align 8 dereferenceable(128) %this, ptr noundef %def)
  store ptr getelementptr inbounds ({ [14 x ptr] }, ptr @_ZTV13b2PulleyJoint, i64 0, i32 0, i64 2), ptr %this, align 8
  %groundAnchorA = getelementptr inbounds i8, ptr %def, i64 36
  %m_groundAnchorA2 = getelementptr inbounds i8, ptr %this, i64 128
  %0 = load i64, ptr %groundAnchorA, align 4
  store i64 %0, ptr %m_groundAnchorA2, align 8
  %groundAnchorB = getelementptr inbounds i8, ptr %def, i64 44
  %m_groundAnchorB3 = getelementptr inbounds i8, ptr %this, i64 136
  %1 = load i64, ptr %groundAnchorB, align 4
  store i64 %1, ptr %m_groundAnchorB3, align 8
  %localAnchorA = getelementptr inbounds i8, ptr %def, i64 52
  %m_localAnchorA4 = getelementptr inbounds i8, ptr %this, i64 152
  %2 = load i64, ptr %localAnchorA, align 4
  store i64 %2, ptr %m_localAnchorA4, align 8
  %localAnchorB = getelementptr inbounds i8, ptr %def, i64 60
  %m_localAnchorB5 = getelementptr inbounds i8, ptr %this, i64 160
  %3 = load i64, ptr %localAnchorB, align 4
  store i64 %3, ptr %m_localAnchorB5, align 8
  %lengthA = getelementptr inbounds i8, ptr %def, i64 68
  %4 = load float, ptr %lengthA, align 4
  %m_lengthA = getelementptr inbounds i8, ptr %this, i64 144
  store float %4, ptr %m_lengthA, align 8
  %lengthB = getelementptr inbounds i8, ptr %def, i64 72
  %5 = load float, ptr %lengthB, align 8
  %m_lengthB = getelementptr inbounds i8, ptr %this, i64 148
  store float %5, ptr %m_lengthB, align 4
  %ratio = getelementptr inbounds i8, ptr %def, i64 76
  %6 = load float, ptr %ratio, align 4
  %m_ratio = getelementptr inbounds i8, ptr %this, i64 172
  store float %6, ptr %m_ratio, align 4
  %7 = load float, ptr %lengthA, align 4
  %8 = load float, ptr %lengthB, align 8
  %9 = tail call float @llvm.fmuladd.f32(float %6, float %8, float %7)
  %m_constant = getelementptr inbounds i8, ptr %this, i64 168
  store float %9, ptr %m_constant, align 8
  %m_impulse = getelementptr inbounds i8, ptr %this, i64 176
  store float 0.000000e+00, ptr %m_impulse, align 8
  ret void
}